target datalayout = "e-m:e-p270:32:32-p271:32:32-p272:64:64-i64:64-i128:128-f80:128-n8:16:32:64-S128"
target triple = "x86_64-pc-linux-gnu"

%"class.llvm::cl::opt" = type { %"class.llvm::cl::Option", %"class.llvm::cl::opt_storage", %"class.llvm::cl::parser", %"class.std::function" }
%"class.llvm::cl::Option" = type { ptr, i16, i16, i16, i16, %"class.llvm::StringRef", %"class.llvm::StringRef", %"class.llvm::StringRef", %"class.llvm::SmallVector", %"class.llvm::SmallPtrSet" }
%"class.llvm::StringRef" = type { ptr, i64 }
%"class.llvm::SmallVector" = type { %"class.llvm::SmallVectorImpl", %"struct.llvm::SmallVectorStorage" }
%"class.llvm::SmallVectorImpl" = type { %"class.llvm::SmallVectorTemplateBase" }
%"class.llvm::SmallVectorTemplateBase" = type { %"class.llvm::SmallVectorTemplateCommon" }
%"class.llvm::SmallVectorTemplateCommon" = type { %"class.llvm::SmallVectorBase" }
%"class.llvm::SmallVectorBase" = type { ptr, i32, i32 }
%"struct.llvm::SmallVectorStorage" = type { [8 x i8] }
%"class.llvm::SmallPtrSet" = type { %"class.llvm::SmallPtrSetImpl.base", [1 x ptr] }
%"class.llvm::SmallPtrSetImpl.base" = type { %"class.llvm::SmallPtrSetImplBase.base" }
%"class.llvm::SmallPtrSetImplBase.base" = type <{ ptr, ptr, i32, i32, i32 }>
%"class.llvm::cl::opt_storage" = type { double, %"struct.llvm::cl::OptionValue" }
%"struct.llvm::cl::OptionValue" = type { %"struct.llvm::cl::OptionValueBase.base", [7 x i8] }
%"struct.llvm::cl::OptionValueBase.base" = type { %"class.llvm::cl::OptionValueCopy.base" }
%"class.llvm::cl::OptionValueCopy.base" = type <{ %"struct.llvm::cl::GenericOptionValue", double, i8 }>
%"struct.llvm::cl::GenericOptionValue" = type { ptr }
%"class.llvm::cl::parser" = type { %"class.llvm::cl::basic_parser" }
%"class.llvm::cl::basic_parser" = type { %"class.llvm::cl::basic_parser_impl" }
%"class.llvm::cl::basic_parser_impl" = type { ptr }
%"class.std::function" = type { %"class.std::_Function_base", ptr }
%"class.std::_Function_base" = type { %"union.std::_Any_data", ptr }
%"union.std::_Any_data" = type { %"union.std::_Nocopy_types" }
%"union.std::_Nocopy_types" = type { { i64, i64 } }
%"class.llvm::RegAllocScore" = type { double, double, double, double, double, double }

@CopyWeight = global %"class.llvm::cl::opt" zeroinitializer, align 8
@LoadWeight = global %"class.llvm::cl::opt" zeroinitializer, align 8
@StoreWeight = global %"class.llvm::cl::opt" zeroinitializer, align 8
@CheapRematWeight = global %"class.llvm::cl::opt" zeroinitializer, align 8
@ExpensiveRematWeight = global %"class.llvm::cl::opt" zeroinitializer, align 8

; Function Attrs: mustprogress nounwind uwtable
define linkonce_odr hidden noundef double @_ZNK4llvm2cl11opt_storageIdLb0ELb0EE8getValueEv(ptr noundef nonnull align 8 dereferenceable(32) %0) #1 comdat align 2 {
  %2 = alloca ptr, align 8
  store ptr %0, ptr %2, align 8
  %3 = load ptr, ptr %2, align 8
  %4 = getelementptr inbounds nuw %"class.llvm::cl::opt_storage", ptr %3, i32 0, i32 0
  %5 = load double, ptr %4, align 8
  ret double %5
}

; Function Attrs: mustprogress nounwind uwtable
define linkonce_odr hidden noundef double @_ZNK4llvm13RegAllocScore20expensiveRematCountsEv(ptr noundef nonnull align 8 dereferenceable(48) %0) #1 comdat align 2 {
  %2 = alloca ptr, align 8
  store ptr %0, ptr %2, align 8
  %3 = load ptr, ptr %2, align 8
  %4 = getelementptr inbounds nuw %"class.llvm::RegAllocScore", ptr %3, i32 0, i32 5
  %5 = load double, ptr %4, align 8
  ret double %5
}

; Function Attrs: mustprogress nounwind uwtable
define linkonce_odr hidden noundef double @_ZNK4llvm13RegAllocScore16cheapRematCountsEv(ptr noundef nonnull align 8 dereferenceable(48) %0) #1 comdat align 2 {
  %2 = alloca ptr, align 8
  store ptr %0, ptr %2, align 8
  %3 = load ptr, ptr %2, align 8
  %4 = getelementptr inbounds nuw %"class.llvm::RegAllocScore", ptr %3, i32 0, i32 3
  %5 = load double, ptr %4, align 8
  ret double %5
}

; Function Attrs: mustprogress nounwind uwtable
define linkonce_odr hidden noundef double @_ZNK4llvm13RegAllocScore15loadStoreCountsEv(ptr noundef nonnull align 8 dereferenceable(48) %0) #1 comdat align 2 {
  %2 = alloca ptr, align 8
  store ptr %0, ptr %2, align 8
  %3 = load ptr, ptr %2, align 8
  %4 = getelementptr inbounds nuw %"class.llvm::RegAllocScore", ptr %3, i32 0, i32 4
  %5 = load double, ptr %4, align 8
  ret double %5
}

; Function Attrs: mustprogress nounwind uwtable
define linkonce_odr hidden noundef double @_ZNK4llvm13RegAllocScore11storeCountsEv(ptr noundef nonnull align 8 dereferenceable(48) %0) #1 comdat align 2 {
  %2 = alloca ptr, align 8
  store ptr %0, ptr %2, align 8
  %3 = load ptr, ptr %2, align 8
  %4 = getelementptr inbounds nuw %"class.llvm::RegAllocScore", ptr %3, i32 0, i32 2
  %5 = load double, ptr %4, align 8
  ret double %5
}

; Function Attrs: mustprogress nounwind uwtable
define linkonce_odr hidden noundef double @_ZNK4llvm13RegAllocScore10loadCountsEv(ptr noundef nonnull align 8 dereferenceable(48) %0) #1 comdat align 2 {
  %2 = alloca ptr, align 8
  store ptr %0, ptr %2, align 8
  %3 = load ptr, ptr %2, align 8
  %4 = getelementptr inbounds nuw %"class.llvm::RegAllocScore", ptr %3, i32 0, i32 1
  %5 = load double, ptr %4, align 8
  ret double %5
}

; Function Attrs: mustprogress nounwind uwtable
define linkonce_odr hidden noundef double @_ZNK4llvm13RegAllocScore10copyCountsEv(ptr noundef nonnull align 8 dereferenceable(48) %0) #1 comdat align 2 {
  %2 = alloca ptr, align 8
  store ptr %0, ptr %2, align 8
  %3 = load ptr, ptr %2, align 8
  %4 = getelementptr inbounds nuw %"class.llvm::RegAllocScore", ptr %3, i32 0, i32 0
  %5 = load double, ptr %4, align 8
  ret double %5
}

; Function Attrs: mustprogress nounwind uwtable
define linkonce_odr hidden noundef double @_ZNK4llvm2cl11opt_storageIdLb0ELb0EEcvdEv(ptr noundef nonnull align 8 dereferenceable(32) %0) #1 comdat align 2 {
  %2 = alloca ptr, align 8
  store ptr %0, ptr %2, align 8
  %3 = load ptr, ptr %2, align 8
  %4 = call noundef double @_ZNK4llvm2cl11opt_storageIdLb0ELb0EE8getValueEv(ptr noundef nonnull align 8 dereferenceable(32) %3)
  ret double %4
}

; Function Attrs: mustprogress nounwind uwtable
define dso_local noundef double @_ZNK4llvm13RegAllocScore8getScoreEv(ptr noundef nonnull align 8 dereferenceable(48) %0) #1 align 2 {
  %2 = alloca ptr, align 8
  %3 = alloca double, align 8
  store ptr %0, ptr %2, align 8
  %4 = load ptr, ptr %2, align 8
  store double 0.000000e+00, ptr %3, align 8
  %5 = call noundef double @_ZNK4llvm2cl11opt_storageIdLb0ELb0EEcvdEv(ptr noundef nonnull align 8 dereferenceable(32) getelementptr inbounds (i8, ptr @CopyWeight, i64 128))
  %6 = call noundef double @_ZNK4llvm13RegAllocScore10copyCountsEv(ptr noundef nonnull align 8 dereferenceable(48) %4)
  %7 = load double, ptr %3, align 8
  %8 = call double @llvm.fmuladd.f64(double %5, double %6, double %7)
  store double %8, ptr %3, align 8
  %9 = call noundef double @_ZNK4llvm2cl11opt_storageIdLb0ELb0EEcvdEv(ptr noundef nonnull align 8 dereferenceable(32) getelementptr inbounds (i8, ptr @LoadWeight, i64 128))
  %10 = call noundef double @_ZNK4llvm13RegAllocScore10loadCountsEv(ptr noundef nonnull align 8 dereferenceable(48) %4)
  %11 = load double, ptr %3, align 8
  %12 = call double @llvm.fmuladd.f64(double %9, double %10, double %11)
  store double %12, ptr %3, align 8
  %13 = call noundef double @_ZNK4llvm2cl11opt_storageIdLb0ELb0EEcvdEv(ptr noundef nonnull align 8 dereferenceable(32) getelementptr inbounds (i8, ptr @StoreWeight, i64 128))
  %14 = call noundef double @_ZNK4llvm13RegAllocScore11storeCountsEv(ptr noundef nonnull align 8 dereferenceable(48) %4)
  %15 = load double, ptr %3, align 8
  %16 = call double @llvm.fmuladd.f64(double %13, double %14, double %15)
  store double %16, ptr %3, align 8
  %17 = call noundef double @_ZNK4llvm2cl11opt_storageIdLb0ELb0EEcvdEv(ptr noundef nonnull align 8 dereferenceable(32) getelementptr inbounds (i8, ptr @LoadWeight, i64 128))
  %18 = call noundef double @_ZNK4llvm2cl11opt_storageIdLb0ELb0EEcvdEv(ptr noundef nonnull align 8 dereferenceable(32) getelementptr inbounds (i8, ptr @StoreWeight, i64 128))
  %19 = fadd double %17, %18
  %20 = call noundef double @_ZNK4llvm13RegAllocScore15loadStoreCountsEv(ptr noundef nonnull align 8 dereferenceable(48) %4)
  %21 = load double, ptr %3, align 8
  %22 = call double @llvm.fmuladd.f64(double %19, double %20, double %21)
  store double %22, ptr %3, align 8
  %23 = call noundef double @_ZNK4llvm2cl11opt_storageIdLb0ELb0EEcvdEv(ptr noundef nonnull align 8 dereferenceable(32) getelementptr inbounds (i8, ptr @CheapRematWeight, i64 128))
  %24 = call noundef double @_ZNK4llvm13RegAllocScore16cheapRematCountsEv(ptr noundef nonnull align 8 dereferenceable(48) %4)
  %25 = load double, ptr %3, align 8
  %26 = call double @llvm.fmuladd.f64(double %23, double %24, double %25)
  store double %26, ptr %3, align 8
  %27 = call noundef double @_ZNK4llvm2cl11opt_storageIdLb0ELb0EEcvdEv(ptr noundef nonnull align 8 dereferenceable(32) getelementptr inbounds (i8, ptr @ExpensiveRematWeight, i64 128))
  %28 = call noundef double @_ZNK4llvm13RegAllocScore20expensiveRematCountsEv(ptr noundef nonnull align 8 dereferenceable(48) %4)
  %29 = load double, ptr %3, align 8
  %30 = call double @llvm.fmuladd.f64(double %27, double %28, double %29)
  store double %30, ptr %3, align 8
  %31 = load double, ptr %3, align 8
  ret double %31
}