; Function Attrs: mustprogress nofree norecurse nosync nounwind willreturn memory(read, inaccessiblemem: none) uwtable
define dso_local noundef double @_ZNK4llvm13RegAllocScore8getScoreEv(ptr noundef nonnull readonly align 8 captures(none) dereferenceable(48) %0) local_unnamed_addr #4 align 2 {
  %2 = load double, ptr getelementptr inbounds nuw (i8, ptr @CopyWeight, i64 128), align 8
  %3 = load double, ptr %0, align 8
  %4 = tail call double @llvm.fmuladd.f64(double %2, double %3, double 0.000000e+00)
  %5 = load double, ptr getelementptr inbounds nuw (i8, ptr @LoadWeight, i64 128), align 8
  %6 = getelementptr inbounds nuw i8, ptr %0, i64 8
  %7 = load double, ptr %6, align 8
  %8 = tail call double @llvm.fmuladd.f64(double %5, double %7, double %4)
  %9 = load double, ptr getelementptr inbounds nuw (i8, ptr @StoreWeight, i64 128), align 8
  %10 = getelementptr inbounds nuw i8, ptr %0, i64 16
  %11 = load double, ptr %10, align 8
  %12 = tail call double @llvm.fmuladd.f64(double %9, double %11, double %8)
  %13 = fadd double %5, %9
  %14 = getelementptr inbounds nuw i8, ptr %0, i64 32
  %15 = load double, ptr %14, align 8
  %16 = tail call double @llvm.fmuladd.f64(double %13, double %15, double %12)
  %17 = load double, ptr getelementptr inbounds nuw (i8, ptr @CheapRematWeight, i64 128), align 8
  %18 = getelementptr inbounds nuw i8, ptr %0, i64 24
  %19 = load double, ptr %18, align 8
  %20 = tail call double @llvm.fmuladd.f64(double %17, double %19, double %16)
  %21 = load double, ptr getelementptr inbounds nuw (i8, ptr @ExpensiveRematWeight, i64 128), align 8
  %22 = getelementptr inbounds nuw i8, ptr %0, i64 40
  %23 = load double, ptr %22, align 8
  %24 = tail call double @llvm.fmuladd.f64(double %21, double %23, double %20)
  ret double %24
}